target datalayout = "e-m:e-p270:32:32-p271:32:32-p272:64:64-i64:64-i128:128-f80:128-n8:16:32:64-S128"
target triple = "x86_64-pc-linux-gnu"

%struct.pdcp_lte_info = type { i8, i16, i32, i16, i32, i8, i32, i8, %struct.rohc_info, i8, i16 }
%struct.rohc_info = type { i8, i8, i8, i8, i32, i8, i8, i16, ptr }

@proto_pdcp_lte = external global i32, align 4

; Function Attrs: null_pointer_is_valid sspstrong uwtable
define internal void @attach_pdcp_lte_info(ptr noundef %0, ptr noundef %1, i32 noundef %2) #0 {
  %4 = alloca ptr, align 8
  %5 = alloca ptr, align 8
  %6 = alloca i32, align 4
  %7 = alloca ptr, align 8
  %8 = alloca i32, align 4
  %9 = alloca i32, align 4
  store ptr %0, ptr %4, align 8
  store ptr %1, ptr %5, align 8
  store i32 %2, ptr %6, align 4
  call void @llvm.lifetime.start.p0(i64 8, ptr %7) #12
  call void @llvm.lifetime.start.p0(i64 4, ptr %8) #12
  store i32 0, ptr %8, align 4
  %10 = call ptr @wmem_file_scope()
  %11 = load ptr, ptr %4, align 8
  %12 = load i32, ptr @proto_pdcp_lte, align 4
  %13 = call ptr @p_get_proto_data(ptr noundef %10, ptr noundef %11, i32 noundef %12, i32 noundef 0)
  store ptr %13, ptr %7, align 8
  %14 = load ptr, ptr %7, align 8
  %15 = icmp ne ptr %14, null
  br i1 %15, label %16, label %17

16:                                               ; preds = %3
  store i32 1, ptr %9, align 4
  br label %142

17:                                               ; preds = %3
  %18 = call ptr @wmem_file_scope()
  %19 = call noalias ptr @wmem_alloc0(ptr noundef %18, i64 noundef 64) #14
  store ptr %19, ptr %7, align 8
  %20 = load ptr, ptr %5, align 8
  %21 = load i32, ptr %8, align 4
  %22 = add i32 %21, 1
  store i32 %22, ptr %8, align 4
  %23 = zext i32 %21 to i64
  %24 = getelementptr i32, ptr %20, i64 %23
  %25 = load i32, ptr %24, align 4
  %26 = icmp ne i32 %25, 0
  %27 = load ptr, ptr %7, align 8
  %28 = getelementptr inbounds nuw %struct.pdcp_lte_info, ptr %27, i32 0, i32 5
  %29 = zext i1 %26 to i8
  store i8 %29, ptr %28, align 8
  %30 = load ptr, ptr %5, align 8
  %31 = load i32, ptr %8, align 4
  %32 = add i32 %31, 1
  store i32 %32, ptr %8, align 4
  %33 = zext i32 %31 to i64
  %34 = getelementptr i32, ptr %30, i64 %33
  %35 = load i32, ptr %34, align 4
  %36 = load ptr, ptr %7, align 8
  %37 = getelementptr inbounds nuw %struct.pdcp_lte_info, ptr %36, i32 0, i32 6
  store i32 %35, ptr %37, align 4
  %38 = load ptr, ptr %7, align 8
  %39 = getelementptr inbounds nuw %struct.pdcp_lte_info, ptr %38, i32 0, i32 6
  %40 = load i32, ptr %39, align 4
  %41 = icmp ne i32 %40, 2
  br i1 %41, label %42, label %45

42:                                               ; preds = %17
  %43 = load ptr, ptr %7, align 8
  %44 = getelementptr inbounds nuw %struct.pdcp_lte_info, ptr %43, i32 0, i32 6
  store i32 1, ptr %44, align 4
  br label %45

45:                                               ; preds = %42, %17
  %46 = load ptr, ptr %5, align 8
  %47 = load i32, ptr %8, align 4
  %48 = add i32 %47, 1
  store i32 %48, ptr %8, align 4
  %49 = zext i32 %47 to i64
  %50 = getelementptr i32, ptr %46, i64 %49
  %51 = load i32, ptr %50, align 4
  %52 = trunc i32 %51 to i8
  %53 = load ptr, ptr %7, align 8
  %54 = getelementptr inbounds nuw %struct.pdcp_lte_info, ptr %53, i32 0, i32 7
  store i8 %52, ptr %54, align 8
  %55 = load ptr, ptr %5, align 8
  %56 = load i32, ptr %8, align 4
  %57 = add i32 %56, 1
  store i32 %57, ptr %8, align 4
  %58 = zext i32 %56 to i64
  %59 = getelementptr i32, ptr %55, i64 %58
  %60 = load i32, ptr %59, align 4
  %61 = icmp ne i32 %60, 0
  %62 = load ptr, ptr %7, align 8
  %63 = getelementptr inbounds nuw %struct.pdcp_lte_info, ptr %62, i32 0, i32 8
  %64 = getelementptr inbounds nuw %struct.rohc_info, ptr %63, i32 0, i32 0
  %65 = zext i1 %61 to i8
  store i8 %65, ptr %64, align 8
  %66 = load ptr, ptr %5, align 8
  %67 = load i32, ptr %8, align 4
  %68 = add i32 %67, 1
  store i32 %68, ptr %8, align 4
  %69 = zext i32 %67 to i64
  %70 = getelementptr i32, ptr %66, i64 %69
  %71 = load i32, ptr %70, align 4
  %72 = trunc i32 %71 to i8
  %73 = load ptr, ptr %7, align 8
  %74 = getelementptr inbounds nuw %struct.pdcp_lte_info, ptr %73, i32 0, i32 8
  %75 = getelementptr inbounds nuw %struct.rohc_info, ptr %74, i32 0, i32 1
  store i8 %72, ptr %75, align 1
  %76 = load ptr, ptr %5, align 8
  %77 = load i32, ptr %8, align 4
  %78 = add i32 %77, 1
  store i32 %78, ptr %8, align 4
  %79 = zext i32 %77 to i64
  %80 = getelementptr i32, ptr %76, i64 %79
  %81 = load i32, ptr %80, align 4
  %82 = icmp ne i32 %81, 0
  %83 = load ptr, ptr %7, align 8
  %84 = getelementptr inbounds nuw %struct.pdcp_lte_info, ptr %83, i32 0, i32 8
  %85 = getelementptr inbounds nuw %struct.rohc_info, ptr %84, i32 0, i32 2
  %86 = zext i1 %82 to i8
  store i8 %86, ptr %85, align 2
  %87 = load ptr, ptr %5, align 8
  %88 = load i32, ptr %8, align 4
  %89 = add i32 %88, 1
  store i32 %89, ptr %8, align 4
  %90 = zext i32 %88 to i64
  %91 = getelementptr i32, ptr %87, i64 %90
  %92 = load i32, ptr %91, align 4
  %93 = icmp ne i32 %92, 0
  %94 = load ptr, ptr %7, align 8
  %95 = getelementptr inbounds nuw %struct.pdcp_lte_info, ptr %94, i32 0, i32 8
  %96 = getelementptr inbounds nuw %struct.rohc_info, ptr %95, i32 0, i32 3
  %97 = zext i1 %93 to i8
  store i8 %97, ptr %96, align 1
  %98 = load ptr, ptr %5, align 8
  %99 = load i32, ptr %8, align 4
  %100 = add i32 %99, 1
  store i32 %100, ptr %8, align 4
  %101 = zext i32 %99 to i64
  %102 = getelementptr i32, ptr %98, i64 %101
  %103 = load i32, ptr %102, align 4
  %104 = load ptr, ptr %7, align 8
  %105 = getelementptr inbounds nuw %struct.pdcp_lte_info, ptr %104, i32 0, i32 8
  %106 = getelementptr inbounds nuw %struct.rohc_info, ptr %105, i32 0, i32 4
  store i32 %103, ptr %106, align 4
  %107 = load ptr, ptr %5, align 8
  %108 = load i32, ptr %8, align 4
  %109 = add i32 %108, 1
  store i32 %109, ptr %8, align 4
  %110 = zext i32 %108 to i64
  %111 = getelementptr i32, ptr %107, i64 %110
  %112 = load i32, ptr %111, align 4
  %113 = icmp ne i32 %112, 0
  %114 = load ptr, ptr %7, align 8
  %115 = getelementptr inbounds nuw %struct.pdcp_lte_info, ptr %114, i32 0, i32 8
  %116 = getelementptr inbounds nuw %struct.rohc_info, ptr %115, i32 0, i32 5
  %117 = zext i1 %113 to i8
  store i8 %117, ptr %116, align 8
  %118 = load ptr, ptr %5, align 8
  %119 = load i32, ptr %8, align 4
  %120 = add i32 %119, 1
  store i32 %120, ptr %8, align 4
  %121 = zext i32 %119 to i64
  %122 = getelementptr i32, ptr %118, i64 %121
  %123 = load i32, ptr %122, align 4
  %124 = icmp ne i32 %123, 0
  %125 = load ptr, ptr %7, align 8
  %126 = getelementptr inbounds nuw %struct.pdcp_lte_info, ptr %125, i32 0, i32 8
  %127 = getelementptr inbounds nuw %struct.rohc_info, ptr %126, i32 0, i32 6
  %128 = zext i1 %124 to i8
  store i8 %128, ptr %127, align 1
  %129 = load ptr, ptr %5, align 8
  %130 = load i32, ptr %8, align 4
  %131 = zext i32 %130 to i64
  %132 = getelementptr i32, ptr %129, i64 %131
  %133 = load i32, ptr %132, align 4
  %134 = trunc i32 %133 to i16
  %135 = load ptr, ptr %7, align 8
  %136 = getelementptr inbounds nuw %struct.pdcp_lte_info, ptr %135, i32 0, i32 8
  %137 = getelementptr inbounds nuw %struct.rohc_info, ptr %136, i32 0, i32 7
  store i16 %134, ptr %137, align 2
  %138 = call ptr @wmem_file_scope()
  %139 = load ptr, ptr %4, align 8
  %140 = load i32, ptr @proto_pdcp_lte, align 4
  %141 = load ptr, ptr %7, align 8
  call void @p_add_proto_data(ptr noundef %138, ptr noundef %139, i32 noundef %140, i32 noundef 0, ptr noundef %141)
  store i32 0, ptr %9, align 4
  br label %142

142:                                              ; preds = %45, %16
  call void @llvm.lifetime.end.p0(i64 4, ptr %8) #12
  call void @llvm.lifetime.end.p0(i64 8, ptr %7) #12
  %143 = load i32, ptr %9, align 4
  switch i32 %143, label %145 [
    i32 0, label %144
    i32 1, label %144
  ]

144:                                              ; preds = %142, %142
  ret void

145:                                              ; preds = %142
  unreachable
}