; Function Attrs: null_pointer_is_valid sspstrong uwtable
define internal fastcc void @attach_pdcp_lte_info(ptr noundef %0, ptr noundef readonly captures(none) %1) unnamed_addr #0 {
  %3 = tail call ptr @wmem_file_scope()
  %4 = load i32, ptr @proto_pdcp_lte, align 4
  %5 = tail call ptr @p_get_proto_data(ptr noundef %3, ptr noundef %0, i32 noundef %4, i32 noundef 0)
  %.not = icmp eq ptr %5, null
  br i1 %.not, label %6, label %58

6:                                                ; preds = %2
  %7 = tail call ptr @wmem_file_scope()
  %8 = tail call noalias dereferenceable_or_null(64) ptr @wmem_alloc0(ptr noundef %7, i64 noundef 64) #14
  %9 = load i32, ptr %1, align 4
  %10 = icmp ne i32 %9, 0
  %11 = getelementptr inbounds nuw i8, ptr %8, i64 16
  %12 = zext i1 %10 to i8
  store i8 %12, ptr %11, align 8
  %13 = getelementptr i8, ptr %1, i64 4
  %14 = load i32, ptr %13, align 4
  %15 = getelementptr inbounds nuw i8, ptr %8, i64 20
  %.not38 = icmp eq i32 %14, 2
  %spec.select = select i1 %.not38, i32 2, i32 1
  store i32 %spec.select, ptr %15, align 4
  %16 = getelementptr i8, ptr %1, i64 8
  %17 = load i32, ptr %16, align 4
  %18 = trunc i32 %17 to i8
  %19 = getelementptr inbounds nuw i8, ptr %8, i64 24
  store i8 %18, ptr %19, align 8
  %20 = getelementptr i8, ptr %1, i64 12
  %21 = load i32, ptr %20, align 4
  %22 = icmp ne i32 %21, 0
  %23 = getelementptr inbounds nuw i8, ptr %8, i64 32
  %24 = zext i1 %22 to i8
  store i8 %24, ptr %23, align 8
  %25 = getelementptr i8, ptr %1, i64 16
  %26 = load i32, ptr %25, align 4
  %27 = trunc i32 %26 to i8
  %28 = getelementptr inbounds nuw i8, ptr %8, i64 33
  store i8 %27, ptr %28, align 1
  %29 = getelementptr i8, ptr %1, i64 20
  %30 = load i32, ptr %29, align 4
  %31 = icmp ne i32 %30, 0
  %32 = getelementptr inbounds nuw i8, ptr %8, i64 34
  %33 = zext i1 %31 to i8
  store i8 %33, ptr %32, align 2
  %34 = getelementptr i8, ptr %1, i64 24
  %35 = load i32, ptr %34, align 4
  %36 = icmp ne i32 %35, 0
  %37 = getelementptr inbounds nuw i8, ptr %8, i64 35
  %38 = zext i1 %36 to i8
  store i8 %38, ptr %37, align 1
  %39 = getelementptr i8, ptr %1, i64 28
  %40 = load i32, ptr %39, align 4
  %41 = getelementptr inbounds nuw i8, ptr %8, i64 36
  store i32 %40, ptr %41, align 4
  %42 = getelementptr i8, ptr %1, i64 32
  %43 = load i32, ptr %42, align 4
  %44 = icmp ne i32 %43, 0
  %45 = getelementptr inbounds nuw i8, ptr %8, i64 40
  %46 = zext i1 %44 to i8
  store i8 %46, ptr %45, align 8
  %47 = getelementptr i8, ptr %1, i64 36
  %48 = load i32, ptr %47, align 4
  %49 = icmp ne i32 %48, 0
  %50 = getelementptr inbounds nuw i8, ptr %8, i64 41
  %51 = zext i1 %49 to i8
  store i8 %51, ptr %50, align 1
  %52 = getelementptr i8, ptr %1, i64 40
  %53 = load i32, ptr %52, align 4
  %54 = trunc i32 %53 to i16
  %55 = getelementptr inbounds nuw i8, ptr %8, i64 42
  store i16 %54, ptr %55, align 2
  %56 = tail call ptr @wmem_file_scope()
  %57 = load i32, ptr @proto_pdcp_lte, align 4
  tail call void @p_add_proto_data(ptr noundef %56, ptr noundef %0, i32 noundef %57, i32 noundef 0, ptr noundef %8)
  br label %58

58:                                               ; preds = %2, %6
  ret void
}